(dp0
I0
S'Kalarikkal, Eshan'
p1
sI6853474990529218435
S'Davanzo, Larry'
p2
sI2427444936025627013
S'Wimette, Brandon'
p3
sI6298251955362216257
S'Straub, DePaul'
p4
sI3276771372131527561
S'Cox, Matt'
p5
sI4303416520328666765
S'Sheriff, Peter'
p6
sI-3889780726966372081
S'Diz, Antonio'
p7
sI-1361055203126365565
S'Wimble, Ryan'
p8
sI7653077834733051717
S'Pope, Shelby'
p9
sI-678573192802640359
S'Thomas, Deja'
p10
sI-5284081964672714211
S'Townsend, Jonathan'
p11
sI-9121540061305295355
S'Fonseca, Jacob'
p12
sI-4952634731986794207
S'Perrow, Emily'
p13
sI-5591264986185989597
S'Ali, Moni'
p14
sI-8320294425599527175
S'Gomes, Celine'
p15
sI-3126194933732284121
S'Samson, KB'
p16
sI-4001060567783334743
S'Cusic, Matt'
p17
sI-7591279986192989525
S'Mann, Abby'
p18
sI-650521776114098507
S'Leifheit, Alex'
p19
sI5653087834852052023
S'Esmay, Dakota'
p20
sI1474770102106280999
S'McClafferty, Greg'
p21
sI1552028016052413370
S'Moyer, Savannah'
p22
sI3172505633766154805
S'Hoang, Emily'
p23
sI1172524634023155265
S'Cho, Amanda'
p24
sI-8163334926204710331
S'Baxter, Annabella'
p25
sI1317240056142418247
S'Whitten, Brena'
p26
sI-9195025547523147989
S'Engle, Michelle'
p27
sI7690900189563162187
S'Haq, Nabeen'
p28
sI5427470936058627067
S'Beerman, Kendall'
p29
sI2794259188624899021
S'Zhou, Austin'
p30
sI2316768934867371021
S'Ramos, Santia'
p31
sI287929883726350545
S'Gilmore, Jenna'
p32
sI6105685536716118563
S'Carroll, Aaron'
p33
sI6653843469156530445
S'Ochoa, Simon'
p34
sI-3698967416508827435
S'Miller, Gwen'
p35
sI-719466526184442141
S'Pratt, Kaela'
p36
sI-9129355016855132337
S'Doan, Danielle'
p37
sI2533216463399139963
S'Friedman, Elli'
p38
sI-4349947736078366199
S'Bryant, Connor'
p39
sI8056571638212892261
S'Baxter, Annabella'
p40
sI-1019232137657924613
S'Gregory, Teressa'
p41
sI5683490779531369259
S'Hwang, Josh'
p42
sI-4542829345669260309
S'Molloy, Chris'
p43
sI849817785979322859
S'Salter, Conor'
p44
sI7430097666796448423
S'Fosbury, Jonathan'
p45
sI-1256031548067172497
S'DeVito, Marc'
p46
sI3687237984917266419
S'Merrick, Josh'
p47
sI-7134533875312690187
S'Clatterbuck, Courtney'
p48
sI4356876633700693993
S'Milauskas, Zachary'
p49
sI7291708088906247083
S'Mendoza, Catalina'
p50
sI-3018468503250445959
S'Llamas, Wesley'
p51
sI-1019232137655924613
S'King, Brett'
p52
sI8443399411825095031
S'Moyer, Savannah'
p53
sI-8458432800875682819
S'Presutto, Natalie'
p54
sI-7452980293956215211
S'Krepp, Ryan'
p55
s.